; Function Attrs: mustprogress uwtable
define noundef range(i32 -1, 1) i32 @_ZN3zmq5msg_t11init_bufferEPKvm(ptr noundef nonnull align 8 dereferenceable(64) initializes((0, 8), (42, 50)) %0, ptr noundef readonly captures(none) %1, i64 noundef %2) local_unnamed_addr #1 align 2 {
  %4 = icmp ult i64 %2, 34
  store ptr null, ptr %0, align 8, !tbaa !3
  %5 = getelementptr inbounds nuw i8, ptr %0, i64 42
  %6 = getelementptr inbounds nuw i8, ptr %0, i64 43
  br i1 %4, label %17, label %7

7:                                                ; preds = %3
  store i8 102, ptr %5, align 2, !tbaa !3
  %8 = getelementptr inbounds nuw i8, ptr %0, i64 8
  store ptr null, ptr %8, align 8, !tbaa !3
  %9 = icmp ult i64 %2, -40
  tail call void @llvm.memset.p0.i64(ptr noundef nonnull align 1 dereferenceable(7) %6, i8 0, i64 7, i1 false)
  br i1 %9, label %10, label %_ZN3zmq5msg_t9init_sizeEm.exit

10:                                               ; preds = %7
  %11 = add nuw i64 %2, 40
  %12 = tail call noalias ptr @malloc(i64 noundef %11) #21
  store ptr %12, ptr %8, align 8, !tbaa !3
  %.not.i = icmp eq ptr %12, null
  br i1 %.not.i, label %_ZN3zmq5msg_t9init_sizeEm.exit, label %.thread, !prof !21

.thread:                                          ; preds = %10
  %13 = getelementptr inbounds nuw i8, ptr %12, i64 40
  store ptr %13, ptr %12, align 8, !tbaa !10
  %14 = getelementptr inbounds nuw i8, ptr %12, i64 8
  store i64 %2, ptr %14, align 8, !tbaa !17
  %15 = getelementptr inbounds nuw i8, ptr %12, i64 16
  tail call void @llvm.memset.p0.i64(ptr noundef nonnull align 8 dereferenceable(20) %15, i8 0, i64 20, i1 false)
  br label %23

_ZN3zmq5msg_t9init_sizeEm.exit:                   ; preds = %7, %10
  %16 = tail call ptr @__errno_location() #22
  store i32 12, ptr %16, align 4, !tbaa !22
  br label %25

17:                                               ; preds = %3
  store i8 101, ptr %5, align 2, !tbaa !3
  store i8 0, ptr %6, align 1, !tbaa !3
  %18 = trunc nuw nsw i64 %2 to i8
  %19 = getelementptr inbounds nuw i8, ptr %0, i64 41
  store i8 %18, ptr %19, align 1, !tbaa !3
  %20 = getelementptr inbounds nuw i8, ptr %0, i64 48
  %21 = getelementptr inbounds nuw i8, ptr %0, i64 49
  store i8 0, ptr %21, align 1, !tbaa !3
  store i8 0, ptr %20, align 8, !tbaa !3
  %22 = getelementptr inbounds nuw i8, ptr %0, i64 44
  store i32 0, ptr %22, align 4, !tbaa !3
  %.not = icmp eq i64 %2, 0
  br i1 %.not, label %25, label %23

23:                                               ; preds = %.thread, %17
  %24 = tail call noundef ptr @_ZN3zmq5msg_t4dataEv(ptr noundef nonnull align 8 dereferenceable(64) %0)
  tail call void @llvm.memcpy.p0.p0.i64(ptr align 1 %24, ptr align 1 %1, i64 %2, i1 false)
  br label %25

25:                                               ; preds = %_ZN3zmq5msg_t9init_sizeEm.exit, %17, %23
  %.0 = phi i32 [ -1, %_ZN3zmq5msg_t9init_sizeEm.exit ], [ 0, %23 ], [ 0, %17 ]
  ret i32 %.0
}